target datalayout = "e-m:e-p270:32:32-p271:32:32-p272:64:64-i64:64-i128:128-f80:128-n8:16:32:64-S128"
target triple = "x86_64-pc-linux-gnu"

%"struct.ZRemembered::FoundOld" = type <{ %class.CHeapBitMap, %class.CHeapBitMap, [2 x ptr], i32, [4 x i8] }>
%class.CHeapBitMap = type <{ %class.GrowableBitMap, i8, [7 x i8] }>
%class.GrowableBitMap = type { %class.BitMap }
%class.BitMap = type { ptr, i64 }

; Function Attrs: mustprogress nounwind uwtable
define hidden noundef ptr @_ZN11ZRemembered8FoundOld15previous_bitmapEv(ptr noundef nonnull align 8 dereferenceable(68) %0) #1 align 2 {
  %2 = alloca ptr, align 8
  store ptr %0, ptr %2, align 8
  %3 = load ptr, ptr %2, align 8
  %4 = getelementptr inbounds %"struct.ZRemembered::FoundOld", ptr %3, i32 0, i32 2
  %5 = getelementptr inbounds %"struct.ZRemembered::FoundOld", ptr %3, i32 0, i32 3
  %6 = load i32, ptr %5, align 8
  %7 = xor i32 %6, 1
  %8 = sext i32 %7 to i64
  %9 = getelementptr inbounds [2 x ptr], ptr %4, i64 0, i64 %8
  %10 = load ptr, ptr %9, align 8
  ret ptr %10
}