; Function Attrs: mustprogress nofree norecurse nosync nounwind willreturn memory(argmem: read) uwtable
define hidden noundef ptr @_ZN11ZRemembered8FoundOld15previous_bitmapEv(ptr nocapture noundef nonnull readonly align 8 dereferenceable(68) %0) local_unnamed_addr #3 align 2 {
  %2 = getelementptr inbounds i8, ptr %0, i64 48
  %3 = getelementptr inbounds i8, ptr %0, i64 64
  %4 = load i32, ptr %3, align 8
  %5 = xor i32 %4, 1
  %6 = sext i32 %5 to i64
  %7 = getelementptr inbounds [2 x ptr], ptr %2, i64 0, i64 %6
  %8 = load ptr, ptr %7, align 8
  ret ptr %8
}